target datalayout = "e-m:e-p270:32:32-p271:32:32-p272:64:64-i64:64-i128:128-f80:128-n8:16:32:64-S128"
target triple = "x86_64-pc-linux-gnu"

%struct.strbuf = type { i64, i64, ptr }
%struct.json_writer = type { %struct.strbuf, %struct.strbuf, i8 }

@.str.1 = private unnamed_addr constant [5 x i8] c"true\00", align 1
@.str.2 = private unnamed_addr constant [6 x i8] c"false\00", align 1

; Function Attrs: inlinehint nounwind uwtable
define internal void @strbuf_addstr(ptr noundef %0, ptr noundef %1) #4 {
  %3 = alloca ptr, align 8
  %4 = alloca ptr, align 8
  store ptr %0, ptr %3, align 8, !tbaa !14
  store ptr %1, ptr %4, align 8, !tbaa !12
  %5 = load ptr, ptr %3, align 8, !tbaa !14
  %6 = load ptr, ptr %4, align 8, !tbaa !12
  %7 = load ptr, ptr %4, align 8, !tbaa !12
  %8 = call i64 @strlen(ptr noundef %7) #8
  call void @strbuf_add(ptr noundef %5, ptr noundef %6, i64 noundef %8)
  ret void
}

; Function Attrs: nounwind uwtable
define dso_local void @jw_array_false(ptr noundef %0) #0 {
  %2 = alloca ptr, align 8
  store ptr %0, ptr %2, align 8, !tbaa !4
  %3 = load ptr, ptr %2, align 8, !tbaa !4
  call void @array_common(ptr noundef %3)
  %4 = load ptr, ptr %2, align 8, !tbaa !4
  %5 = getelementptr inbounds nuw %struct.json_writer, ptr %4, i32 0, i32 0
  call void @strbuf_addstr(ptr noundef %5, ptr noundef @.str.2)
  ret void
}

; Function Attrs: nounwind uwtable
define dso_local void @jw_array_true(ptr noundef %0) #0 {
  %2 = alloca ptr, align 8
  store ptr %0, ptr %2, align 8, !tbaa !4
  %3 = load ptr, ptr %2, align 8, !tbaa !4
  call void @array_common(ptr noundef %3)
  %4 = load ptr, ptr %2, align 8, !tbaa !4
  %5 = getelementptr inbounds nuw %struct.json_writer, ptr %4, i32 0, i32 0
  call void @strbuf_addstr(ptr noundef %5, ptr noundef @.str.1)
  ret void
}

; Function Attrs: nounwind uwtable
define dso_local void @jw_array_bool(ptr noundef %0, i32 noundef %1) #0 {
  %3 = alloca ptr, align 8
  %4 = alloca i32, align 4
  store ptr %0, ptr %3, align 8, !tbaa !4
  store i32 %1, ptr %4, align 4, !tbaa !9
  %5 = load i32, ptr %4, align 4, !tbaa !9
  %6 = icmp ne i32 %5, 0
  br i1 %6, label %7, label %9

7:                                                ; preds = %2
  %8 = load ptr, ptr %3, align 8, !tbaa !4
  call void @jw_array_true(ptr noundef %8)
  br label %11

9:                                                ; preds = %2
  %10 = load ptr, ptr %3, align 8, !tbaa !4
  call void @jw_array_false(ptr noundef %10)
  br label %11

11:                                               ; preds = %9, %7
  ret void
}