; Function Attrs: nounwind uwtable
define dso_local void @jw_array_bool(ptr noundef %0, i32 noundef %1) local_unnamed_addr #3 {
  %.not = icmp eq i32 %1, 0
  tail call fastcc void @array_common(ptr noundef %0)
  br i1 %.not, label %4, label %3

3:                                                ; preds = %2
  tail call void @strbuf_add(ptr noundef %0, ptr noundef nonnull @.str.1, i64 noundef 4) #8
  br label %5

4:                                                ; preds = %2
  tail call void @strbuf_add(ptr noundef %0, ptr noundef nonnull @.str.2, i64 noundef 5) #8
  br label %5

5:                                                ; preds = %4, %3
  ret void
}